ccopy_reg
_reconstructor
p0
(cgoogle.oauth2.credentials
Credentials
p1
c__builtin__
object
p2
Ntp3
Rp4
(dp5
S'_token_uri'
p6
Vhttps://oauth2.googleapis.com/token
p7
sS'_client_secret'
p8
VRdSbvBK1K9pqnUrIrQI074dK
p9
sS'_id_token'
p10
NsS'token'
p11
Vya29.Il-1B-CBzzhjgTUwf1nPhhxCmN1rpI2DmhYrGjIrp3Nz0bHfmUeYMW1jUDT-2A3yjt7H4AtIsq9Qb7JK8SjN5z3DsdZOiLvH5AWZuGTbZf-wZChxVuRYfjY7e_tnLncg3g
p12
sS'_refresh_token'
p13
V1//06-m5qLvRR3FWCgYIARAAGAYSNwF-L9IrE0YWBbZDVcw0uiEeI4kQ0xhdou3Gohq_Ih3fNfq0befxGkSX5PZFPvt1OOs0GOwxXR8
p14
sS'_scopes'
p15
(lp16
S'https://www.googleapis.com/auth/drive'
p17
asS'_client_id'
p18
V297232077222-f62lqbrl8r570omcl9fatrk41ti6bsuq.apps.googleusercontent.com
p19
sS'expiry'
p20
cdatetime
datetime
p21
(S'\x07\xe3\x0c\r\x00*\x0c\x03\xa9\x80'
p22
tp23
Rp24
sb.